target datalayout = "e-m:e-p270:32:32-p271:32:32-p272:64:64-i64:64-i128:128-f80:128-n8:16:32:64-S128"
target triple = "x86_64-pc-linux-gnu"

%struct.AVBSFContext = type { ptr, ptr, ptr, ptr, ptr, %struct.AVRational, %struct.AVRational }
%struct.AVRational = type { i32, i32 }
%struct.CBSBSFContext = type { ptr, ptr, ptr, ptr, %struct.CodedBitstreamFragment }
%struct.CodedBitstreamFragment = type { ptr, i64, i64, ptr, i32, i32, ptr }
%struct.CBSBSFType = type { i32, ptr, ptr, ptr }

@.str = private unnamed_addr constant [32 x i8] c"Failed to read %s from packet.\0A\00", align 1
@.str.1 = private unnamed_addr constant [24 x i8] c"No %s found in packet.\0A\00", align 1
@.str.2 = private unnamed_addr constant [33 x i8] c"Failed to write %s into packet.\0A\00", align 1
@.str.5 = private unnamed_addr constant [49 x i8] c"Failed to read extradata from packet side data.\0A\00", align 1
@.str.6 = private unnamed_addr constant [50 x i8] c"Failed to write extradata into packet side data.\0A\00", align 1

; Function Attrs: nounwind uwtable
define internal i32 @cbs_bsf_update_side_data(ptr noundef %0, ptr noundef %1) #0 {
  %3 = alloca i32, align 4
  %4 = alloca ptr, align 8
  %5 = alloca ptr, align 8
  %6 = alloca ptr, align 8
  %7 = alloca ptr, align 8
  %8 = alloca ptr, align 8
  %9 = alloca i32, align 4
  %10 = alloca i32, align 4
  store ptr %0, ptr %4, align 8, !tbaa !4
  store ptr %1, ptr %5, align 8, !tbaa !9
  call void @llvm.lifetime.start.p0(i64 8, ptr %6) #4
  %11 = load ptr, ptr %4, align 8, !tbaa !4
  %12 = getelementptr inbounds nuw %struct.AVBSFContext, ptr %11, i32 0, i32 2
  %13 = load ptr, ptr %12, align 8, !tbaa !11
  store ptr %13, ptr %6, align 8, !tbaa !18
  call void @llvm.lifetime.start.p0(i64 8, ptr %7) #4
  %14 = load ptr, ptr %6, align 8, !tbaa !18
  %15 = getelementptr inbounds nuw %struct.CBSBSFContext, ptr %14, i32 0, i32 4
  store ptr %15, ptr %7, align 8, !tbaa !20
  call void @llvm.lifetime.start.p0(i64 8, ptr %8) #4
  call void @llvm.lifetime.start.p0(i64 4, ptr %9) #4
  %16 = load ptr, ptr %5, align 8, !tbaa !9
  %17 = call ptr @av_packet_get_side_data(ptr noundef %16, i32 noundef 1, ptr noundef null)
  %18 = icmp ne ptr %17, null
  br i1 %18, label %20, label %19

19:                                               ; preds = %2
  store i32 0, ptr %3, align 4
  store i32 1, ptr %10, align 4
  br label %74

20:                                               ; preds = %2
  %21 = load ptr, ptr %6, align 8, !tbaa !18
  %22 = getelementptr inbounds nuw %struct.CBSBSFContext, ptr %21, i32 0, i32 2
  %23 = load ptr, ptr %22, align 8, !tbaa !23
  %24 = load ptr, ptr %7, align 8, !tbaa !20
  %25 = load ptr, ptr %5, align 8, !tbaa !9
  %26 = call i32 @ff_cbs_read_packet_side_data(ptr noundef %23, ptr noundef %24, ptr noundef %25)
  store i32 %26, ptr %9, align 4, !tbaa !22
  %27 = load i32, ptr %9, align 4, !tbaa !22
  %28 = icmp slt i32 %27, 0
  br i1 %28, label %29, label %32

29:                                               ; preds = %20
  %30 = load ptr, ptr %4, align 8, !tbaa !4
  call void (ptr, i32, ptr, ...) @av_log(ptr noundef %30, i32 noundef 16, ptr noundef @.str.5)
  %31 = load i32, ptr %9, align 4, !tbaa !22
  store i32 %31, ptr %3, align 4
  store i32 1, ptr %10, align 4
  br label %74

32:                                               ; preds = %20
  %33 = load ptr, ptr %6, align 8, !tbaa !18
  %34 = getelementptr inbounds nuw %struct.CBSBSFContext, ptr %33, i32 0, i32 1
  %35 = load ptr, ptr %34, align 8, !tbaa !32
  %36 = getelementptr inbounds nuw %struct.CBSBSFType, ptr %35, i32 0, i32 3
  %37 = load ptr, ptr %36, align 8, !tbaa !37
  %38 = load ptr, ptr %4, align 8, !tbaa !4
  %39 = load ptr, ptr %7, align 8, !tbaa !20
  %40 = call i32 %37(ptr noundef %38, ptr noundef null, ptr noundef %39)
  store i32 %40, ptr %9, align 4, !tbaa !22
  %41 = load i32, ptr %9, align 4, !tbaa !22
  %42 = icmp slt i32 %41, 0
  br i1 %42, label %43, label %45

43:                                               ; preds = %32
  %44 = load i32, ptr %9, align 4, !tbaa !22
  store i32 %44, ptr %3, align 4
  store i32 1, ptr %10, align 4
  br label %74

45:                                               ; preds = %32
  %46 = load ptr, ptr %6, align 8, !tbaa !18
  %47 = getelementptr inbounds nuw %struct.CBSBSFContext, ptr %46, i32 0, i32 3
  %48 = load ptr, ptr %47, align 8, !tbaa !38
  %49 = load ptr, ptr %7, align 8, !tbaa !20
  %50 = call i32 @ff_cbs_write_fragment_data(ptr noundef %48, ptr noundef %49)
  store i32 %50, ptr %9, align 4, !tbaa !22
  %51 = load i32, ptr %9, align 4, !tbaa !22
  %52 = icmp slt i32 %51, 0
  br i1 %52, label %53, label %56

53:                                               ; preds = %45
  %54 = load ptr, ptr %4, align 8, !tbaa !4
  call void (ptr, i32, ptr, ...) @av_log(ptr noundef %54, i32 noundef 16, ptr noundef @.str.6)
  %55 = load i32, ptr %9, align 4, !tbaa !22
  store i32 %55, ptr %3, align 4
  store i32 1, ptr %10, align 4
  br label %74

56:                                               ; preds = %45
  %57 = load ptr, ptr %5, align 8, !tbaa !9
  %58 = load ptr, ptr %7, align 8, !tbaa !20
  %59 = getelementptr inbounds nuw %struct.CodedBitstreamFragment, ptr %58, i32 0, i32 1
  %60 = load i64, ptr %59, align 8, !tbaa !39
  %61 = call ptr @av_packet_new_side_data(ptr noundef %57, i32 noundef 1, i64 noundef %60)
  store ptr %61, ptr %8, align 8, !tbaa !40
  %62 = load ptr, ptr %8, align 8, !tbaa !40
  %63 = icmp ne ptr %62, null
  br i1 %63, label %65, label %64

64:                                               ; preds = %56
  store i32 -12, ptr %3, align 4
  store i32 1, ptr %10, align 4
  br label %74

65:                                               ; preds = %56
  %66 = load ptr, ptr %8, align 8, !tbaa !40
  %67 = load ptr, ptr %7, align 8, !tbaa !20
  %68 = getelementptr inbounds nuw %struct.CodedBitstreamFragment, ptr %67, i32 0, i32 0
  %69 = load ptr, ptr %68, align 8, !tbaa !41
  %70 = load ptr, ptr %7, align 8, !tbaa !20
  %71 = getelementptr inbounds nuw %struct.CodedBitstreamFragment, ptr %70, i32 0, i32 1
  %72 = load i64, ptr %71, align 8, !tbaa !39
  call void @llvm.memcpy.p0.p0.i64(ptr align 1 %66, ptr align 1 %69, i64 %72, i1 false)
  %73 = load ptr, ptr %7, align 8, !tbaa !20
  call void @ff_cbs_fragment_reset(ptr noundef %73)
  store i32 0, ptr %3, align 4
  store i32 1, ptr %10, align 4
  br label %74

74:                                               ; preds = %65, %64, %53, %43, %29, %19
  call void @llvm.lifetime.end.p0(i64 4, ptr %9) #4
  call void @llvm.lifetime.end.p0(i64 8, ptr %8) #4
  call void @llvm.lifetime.end.p0(i64 8, ptr %7) #4
  call void @llvm.lifetime.end.p0(i64 8, ptr %6) #4
  %75 = load i32, ptr %3, align 4
  ret i32 %75
}

; Function Attrs: nounwind uwtable
define i32 @ff_cbs_bsf_generic_filter(ptr noundef %0, ptr noundef %1) #0 {
  %3 = alloca i32, align 4
  %4 = alloca ptr, align 8
  %5 = alloca ptr, align 8
  %6 = alloca ptr, align 8
  %7 = alloca ptr, align 8
  %8 = alloca i32, align 4
  %9 = alloca i32, align 4
  store ptr %0, ptr %4, align 8, !tbaa !4
  store ptr %1, ptr %5, align 8, !tbaa !9
  call void @llvm.lifetime.start.p0(i64 8, ptr %6) #4
  %10 = load ptr, ptr %4, align 8, !tbaa !4
  %11 = getelementptr inbounds nuw %struct.AVBSFContext, ptr %10, i32 0, i32 2
  %12 = load ptr, ptr %11, align 8, !tbaa !11
  store ptr %12, ptr %6, align 8, !tbaa !18
  call void @llvm.lifetime.start.p0(i64 8, ptr %7) #4
  %13 = load ptr, ptr %6, align 8, !tbaa !18
  %14 = getelementptr inbounds nuw %struct.CBSBSFContext, ptr %13, i32 0, i32 4
  store ptr %14, ptr %7, align 8, !tbaa !20
  call void @llvm.lifetime.start.p0(i64 4, ptr %8) #4
  %15 = load ptr, ptr %4, align 8, !tbaa !4
  %16 = load ptr, ptr %5, align 8, !tbaa !9
  %17 = call i32 @ff_bsf_get_packet_ref(ptr noundef %15, ptr noundef %16)
  store i32 %17, ptr %8, align 4, !tbaa !22
  %18 = load i32, ptr %8, align 4, !tbaa !22
  %19 = icmp slt i32 %18, 0
  br i1 %19, label %20, label %22

20:                                               ; preds = %2
  %21 = load i32, ptr %8, align 4, !tbaa !22
  store i32 %21, ptr %3, align 4
  store i32 1, ptr %9, align 4
  br label %95

22:                                               ; preds = %2
  %23 = load ptr, ptr %4, align 8, !tbaa !4
  %24 = load ptr, ptr %5, align 8, !tbaa !9
  %25 = call i32 @cbs_bsf_update_side_data(ptr noundef %23, ptr noundef %24)
  store i32 %25, ptr %8, align 4, !tbaa !22
  %26 = load i32, ptr %8, align 4, !tbaa !22
  %27 = icmp slt i32 %26, 0
  br i1 %27, label %28, label %29

28:                                               ; preds = %22
  br label %87

29:                                               ; preds = %22
  %30 = load ptr, ptr %6, align 8, !tbaa !18
  %31 = getelementptr inbounds nuw %struct.CBSBSFContext, ptr %30, i32 0, i32 2
  %32 = load ptr, ptr %31, align 8, !tbaa !23
  %33 = load ptr, ptr %7, align 8, !tbaa !20
  %34 = load ptr, ptr %5, align 8, !tbaa !9
  %35 = call i32 @ff_cbs_read_packet(ptr noundef %32, ptr noundef %33, ptr noundef %34)
  store i32 %35, ptr %8, align 4, !tbaa !22
  %36 = load i32, ptr %8, align 4, !tbaa !22
  %37 = icmp slt i32 %36, 0
  br i1 %37, label %38, label %45

38:                                               ; preds = %29
  %39 = load ptr, ptr %4, align 8, !tbaa !4
  %40 = load ptr, ptr %6, align 8, !tbaa !18
  %41 = getelementptr inbounds nuw %struct.CBSBSFContext, ptr %40, i32 0, i32 1
  %42 = load ptr, ptr %41, align 8, !tbaa !32
  %43 = getelementptr inbounds nuw %struct.CBSBSFType, ptr %42, i32 0, i32 1
  %44 = load ptr, ptr %43, align 8, !tbaa !33
  call void (ptr, i32, ptr, ...) @av_log(ptr noundef %39, i32 noundef 16, ptr noundef @.str, ptr noundef %44)
  br label %87

45:                                               ; preds = %29
  %46 = load ptr, ptr %7, align 8, !tbaa !20
  %47 = getelementptr inbounds nuw %struct.CodedBitstreamFragment, ptr %46, i32 0, i32 4
  %48 = load i32, ptr %47, align 8, !tbaa !35
  %49 = icmp eq i32 %48, 0
  br i1 %49, label %50, label %57

50:                                               ; preds = %45
  %51 = load ptr, ptr %4, align 8, !tbaa !4
  %52 = load ptr, ptr %6, align 8, !tbaa !18
  %53 = getelementptr inbounds nuw %struct.CBSBSFContext, ptr %52, i32 0, i32 1
  %54 = load ptr, ptr %53, align 8, !tbaa !32
  %55 = getelementptr inbounds nuw %struct.CBSBSFType, ptr %54, i32 0, i32 2
  %56 = load ptr, ptr %55, align 8, !tbaa !36
  call void (ptr, i32, ptr, ...) @av_log(ptr noundef %51, i32 noundef 16, ptr noundef @.str.1, ptr noundef %56)
  store i32 -1094995529, ptr %8, align 4, !tbaa !22
  br label %87

57:                                               ; preds = %45
  %58 = load ptr, ptr %6, align 8, !tbaa !18
  %59 = getelementptr inbounds nuw %struct.CBSBSFContext, ptr %58, i32 0, i32 1
  %60 = load ptr, ptr %59, align 8, !tbaa !32
  %61 = getelementptr inbounds nuw %struct.CBSBSFType, ptr %60, i32 0, i32 3
  %62 = load ptr, ptr %61, align 8, !tbaa !37
  %63 = load ptr, ptr %4, align 8, !tbaa !4
  %64 = load ptr, ptr %5, align 8, !tbaa !9
  %65 = load ptr, ptr %7, align 8, !tbaa !20
  %66 = call i32 %62(ptr noundef %63, ptr noundef %64, ptr noundef %65)
  store i32 %66, ptr %8, align 4, !tbaa !22
  %67 = load i32, ptr %8, align 4, !tbaa !22
  %68 = icmp slt i32 %67, 0
  br i1 %68, label %69, label %70

69:                                               ; preds = %57
  br label %87

70:                                               ; preds = %57
  %71 = load ptr, ptr %6, align 8, !tbaa !18
  %72 = getelementptr inbounds nuw %struct.CBSBSFContext, ptr %71, i32 0, i32 3
  %73 = load ptr, ptr %72, align 8, !tbaa !38
  %74 = load ptr, ptr %5, align 8, !tbaa !9
  %75 = load ptr, ptr %7, align 8, !tbaa !20
  %76 = call i32 @ff_cbs_write_packet(ptr noundef %73, ptr noundef %74, ptr noundef %75)
  store i32 %76, ptr %8, align 4, !tbaa !22
  %77 = load i32, ptr %8, align 4, !tbaa !22
  %78 = icmp slt i32 %77, 0
  br i1 %78, label %79, label %86

79:                                               ; preds = %70
  %80 = load ptr, ptr %4, align 8, !tbaa !4
  %81 = load ptr, ptr %6, align 8, !tbaa !18
  %82 = getelementptr inbounds nuw %struct.CBSBSFContext, ptr %81, i32 0, i32 1
  %83 = load ptr, ptr %82, align 8, !tbaa !32
  %84 = getelementptr inbounds nuw %struct.CBSBSFType, ptr %83, i32 0, i32 1
  %85 = load ptr, ptr %84, align 8, !tbaa !33
  call void (ptr, i32, ptr, ...) @av_log(ptr noundef %80, i32 noundef 16, ptr noundef @.str.2, ptr noundef %85)
  br label %87

86:                                               ; preds = %70
  store i32 0, ptr %8, align 4, !tbaa !22
  br label %87

87:                                               ; preds = %86, %79, %69, %50, %38, %28
  %88 = load ptr, ptr %7, align 8, !tbaa !20
  call void @ff_cbs_fragment_reset(ptr noundef %88)
  %89 = load i32, ptr %8, align 4, !tbaa !22
  %90 = icmp slt i32 %89, 0
  br i1 %90, label %91, label %93

91:                                               ; preds = %87
  %92 = load ptr, ptr %5, align 8, !tbaa !9
  call void @av_packet_unref(ptr noundef %92)
  br label %93

93:                                               ; preds = %91, %87
  %94 = load i32, ptr %8, align 4, !tbaa !22
  store i32 %94, ptr %3, align 4
  store i32 1, ptr %9, align 4
  br label %95

95:                                               ; preds = %93, %20
  call void @llvm.lifetime.end.p0(i64 4, ptr %8) #4
  call void @llvm.lifetime.end.p0(i64 8, ptr %7) #4
  call void @llvm.lifetime.end.p0(i64 8, ptr %6) #4
  %96 = load i32, ptr %3, align 4
  ret i32 %96
}