; Function Attrs: nounwind uwtable
define range(i32 -2147483648, 1) i32 @ff_cbs_bsf_generic_filter(ptr noundef %0, ptr noundef %1) local_unnamed_addr #0 {
  %3 = getelementptr inbounds nuw i8, ptr %0, i64 16
  %4 = load ptr, ptr %3, align 8, !tbaa !4
  %5 = getelementptr inbounds nuw i8, ptr %4, i64 32
  %6 = tail call i32 @ff_bsf_get_packet_ref(ptr noundef %0, ptr noundef %1) #3
  %7 = icmp slt i32 %6, 0
  br i1 %7, label %71, label %8

8:                                                ; preds = %2
  %9 = load ptr, ptr %3, align 8, !tbaa !4
  %10 = getelementptr inbounds nuw i8, ptr %9, i64 32
  %11 = tail call ptr @av_packet_get_side_data(ptr noundef %1, i32 noundef 1, ptr noundef null) #3
  %.not.i = icmp eq ptr %11, null
  br i1 %.not.i, label %cbs_bsf_update_side_data.exit, label %12

12:                                               ; preds = %8
  %13 = getelementptr inbounds nuw i8, ptr %9, i64 16
  %14 = load ptr, ptr %13, align 8, !tbaa !14
  %15 = tail call i32 @ff_cbs_read_packet_side_data(ptr noundef %14, ptr noundef nonnull %10, ptr noundef %1) #3
  %16 = icmp slt i32 %15, 0
  br i1 %16, label %17, label %18

17:                                               ; preds = %12
  tail call void (ptr, i32, ptr, ...) @av_log(ptr noundef nonnull %0, i32 noundef 16, ptr noundef nonnull @.str.5) #3
  br label %cbs_bsf_update_side_data.exit.thread

18:                                               ; preds = %12
  %19 = getelementptr inbounds nuw i8, ptr %9, i64 8
  %20 = load ptr, ptr %19, align 8, !tbaa !23
  %21 = getelementptr inbounds nuw i8, ptr %20, i64 24
  %22 = load ptr, ptr %21, align 8, !tbaa !24
  %23 = tail call i32 %22(ptr noundef nonnull %0, ptr noundef null, ptr noundef nonnull %10) #3
  %24 = icmp slt i32 %23, 0
  br i1 %24, label %cbs_bsf_update_side_data.exit.thread, label %25

25:                                               ; preds = %18
  %26 = getelementptr inbounds nuw i8, ptr %9, i64 24
  %27 = load ptr, ptr %26, align 8, !tbaa !26
  %28 = tail call i32 @ff_cbs_write_fragment_data(ptr noundef %27, ptr noundef nonnull %10) #3
  %29 = icmp slt i32 %28, 0
  br i1 %29, label %30, label %31

30:                                               ; preds = %25
  tail call void (ptr, i32, ptr, ...) @av_log(ptr noundef nonnull %0, i32 noundef 16, ptr noundef nonnull @.str.6) #3
  br label %cbs_bsf_update_side_data.exit.thread

31:                                               ; preds = %25
  %32 = getelementptr inbounds nuw i8, ptr %9, i64 40
  %33 = load i64, ptr %32, align 8, !tbaa !27
  %34 = tail call ptr @av_packet_new_side_data(ptr noundef %1, i32 noundef 1, i64 noundef %33) #3
  %.not30.i = icmp eq ptr %34, null
  br i1 %.not30.i, label %cbs_bsf_update_side_data.exit.thread, label %35

35:                                               ; preds = %31
  %36 = load ptr, ptr %10, align 8, !tbaa !28
  %37 = load i64, ptr %32, align 8, !tbaa !27
  tail call void @llvm.memcpy.p0.p0.i64(ptr nonnull align 1 %34, ptr align 1 %36, i64 %37, i1 false)
  tail call void @ff_cbs_fragment_reset(ptr noundef nonnull %10) #3
  br label %cbs_bsf_update_side_data.exit

cbs_bsf_update_side_data.exit:                    ; preds = %35, %8
  %38 = getelementptr inbounds nuw i8, ptr %4, i64 16
  %39 = load ptr, ptr %38, align 8, !tbaa !14
  %40 = tail call i32 @ff_cbs_read_packet(ptr noundef %39, ptr noundef nonnull %5, ptr noundef %1) #3
  %41 = icmp slt i32 %40, 0
  br i1 %41, label %42, label %47

42:                                               ; preds = %cbs_bsf_update_side_data.exit
  %43 = getelementptr inbounds nuw i8, ptr %4, i64 8
  %44 = load ptr, ptr %43, align 8, !tbaa !23
  %45 = getelementptr inbounds nuw i8, ptr %44, i64 8
  %46 = load ptr, ptr %45, align 8, !tbaa !29
  tail call void (ptr, i32, ptr, ...) @av_log(ptr noundef nonnull %0, i32 noundef 16, ptr noundef nonnull @.str, ptr noundef %46) #3
  br label %cbs_bsf_update_side_data.exit.thread

47:                                               ; preds = %cbs_bsf_update_side_data.exit
  %48 = getelementptr inbounds nuw i8, ptr %4, i64 64
  %49 = load i32, ptr %48, align 8, !tbaa !30
  %50 = icmp eq i32 %49, 0
  %51 = getelementptr inbounds nuw i8, ptr %4, i64 8
  %52 = load ptr, ptr %51, align 8, !tbaa !23
  br i1 %50, label %53, label %56

53:                                               ; preds = %47
  %54 = getelementptr inbounds nuw i8, ptr %52, i64 16
  %55 = load ptr, ptr %54, align 8, !tbaa !31
  tail call void (ptr, i32, ptr, ...) @av_log(ptr noundef nonnull %0, i32 noundef 16, ptr noundef nonnull @.str.1, ptr noundef %55) #3
  br label %cbs_bsf_update_side_data.exit.thread

56:                                               ; preds = %47
  %57 = getelementptr inbounds nuw i8, ptr %52, i64 24
  %58 = load ptr, ptr %57, align 8, !tbaa !24
  %59 = tail call i32 %58(ptr noundef nonnull %0, ptr noundef %1, ptr noundef nonnull %5) #3
  %60 = icmp slt i32 %59, 0
  br i1 %60, label %cbs_bsf_update_side_data.exit.thread, label %61

61:                                               ; preds = %56
  %62 = getelementptr inbounds nuw i8, ptr %4, i64 24
  %63 = load ptr, ptr %62, align 8, !tbaa !26
  %64 = tail call i32 @ff_cbs_write_packet(ptr noundef %63, ptr noundef %1, ptr noundef nonnull %5) #3
  %65 = icmp slt i32 %64, 0
  br i1 %65, label %66, label %70

66:                                               ; preds = %61
  %67 = load ptr, ptr %51, align 8, !tbaa !23
  %68 = getelementptr inbounds nuw i8, ptr %67, i64 8
  %69 = load ptr, ptr %68, align 8, !tbaa !29
  tail call void (ptr, i32, ptr, ...) @av_log(ptr noundef nonnull %0, i32 noundef 16, ptr noundef nonnull @.str.2, ptr noundef %69) #3
  br label %cbs_bsf_update_side_data.exit.thread

70:                                               ; preds = %61
  tail call void @ff_cbs_fragment_reset(ptr noundef nonnull %5) #3
  br label %71

cbs_bsf_update_side_data.exit.thread:             ; preds = %31, %18, %30, %17, %42, %53, %56, %66
  %.0.ph = phi i32 [ %64, %66 ], [ %59, %56 ], [ -1094995529, %53 ], [ %40, %42 ], [ -12, %31 ], [ %23, %18 ], [ %28, %30 ], [ %15, %17 ]
  tail call void @ff_cbs_fragment_reset(ptr noundef nonnull %5) #3
  tail call void @av_packet_unref(ptr noundef %1) #3
  br label %71

71:                                               ; preds = %70, %cbs_bsf_update_side_data.exit.thread, %2
  %.033 = phi i32 [ %6, %2 ], [ %.0.ph, %cbs_bsf_update_side_data.exit.thread ], [ 0, %70 ]
  ret i32 %.033
}